Certificate:
    Data:
        Version: 3 (0x2)
        Serial Number: 16 (0x10)
    Signature Algorithm: sha1WithRSAEncryption
        Issuer: C=DE, O=nicos AG, OU=IDS-DC, CN=IDS-DC-Connectors
        Validity
            Not Before: Oct 26 11:31:40 2018 GMT
            Not After : Oct 25 11:31:40 2020 GMT
        Subject: C=DE, O=nicos AG, OU=IDS-DC-DAPS, CN=http://www.nicos-rd.com/IDS/connector/dummy
        Subject Public Key Info:
            Public Key Algorithm: rsaEncryption
                Public-Key: (2048 bit)
                Modulus:
                    00:ad:27:0d:de:c7:56:a5:c7:e2:68:49:c5:fd:e7:
                    e0:ed:5b:6c:e5:9a:fd:5f:2b:2a:be:27:2d:00:01:
                    e7:92:5a:ad:fe:1d:30:0a:cf:d4:07:0f:b5:6f:ef:
                    33:fb:26:ad:f7:c4:94:36:d4:d5:74:ff:c9:3f:08:
                    9a:eb:84:4f:0b:67:75:76:84:db:d1:91:a3:fe:02:
                    f3:51:a6:42:ce:11:48:cc:6e:aa:8b:d9:5d:df:1a:
                    f0:64:f5:93:31:db:d9:51:42:4b:6a:7d:e6:80:67:
                    09:1c:83:1b:74:27:f7:d3:83:6f:a0:b4:77:88:4b:
                    ef:7b:e4:e8:61:ce:82:7d:8b:1d:31:3c:f8:81:52:
                    91:0b:11:ed:92:89:e3:70:be:02:20:45:2c:86:eb:
                    17:50:69:a8:93:6b:46:ba:85:2a:38:ae:42:bb:2a:
                    3b:7b:03:d1:9c:1c:e4:93:73:a1:3b:44:1f:30:fe:
                    12:79:6b:05:17:6a:68:ed:7d:97:94:d0:96:07:80:
                    6f:d3:82:e1:77:b4:4a:d8:f8:8c:cf:fa:a3:ab:42:
                    fb:bc:41:61:ed:0e:b4:6f:84:f6:f8:3c:df:7f:28:
                    9f:03:ee:63:26:d3:ba:50:f4:73:99:dc:98:f3:19:
                    17:6c:a7:e2:19:db:a0:2a:c9:80:d4:bc:d6:ed:64:
                    28:97
                Exponent: 65537 (0x10001)
        X509v3 extensions:
            X509v3 Key Usage: critical
                Digital Signature, Key Encipherment
            X509v3 Basic Constraints: 
                CA:FALSE
            X509v3 Extended Key Usage: 
                TLS Web Server Authentication, TLS Web Client Authentication
            X509v3 Subject Key Identifier: 
                53:56:3C:00:6D:86:29:8F:92:22:AF:39:9E:8D:76:A3:20:77:79:78
            X509v3 Authority Key Identifier: 
                keyid:3B:9B:8E:72:A4:54:05:5A:10:48:E7:C0:33:0B:87:02:BC:57:7C:A4

            Authority Information Access: 
                CA Issuers - URI:http://www.internationaldataspaces.org/dc/Connectors/ids-dc-connector-ca.cer
                OCSP - URI:http://ocsp-dc.internationaldataspaces.org

            X509v3 CRL Distribution Points: 

                Full Name:
                  URI:http://www.internationaldataspaces.org/dc/Connectors/ids-dc-connector-ca.crl

            X509v3 Subject Alternative Name: 
                URI:http://www.nicos-rd.com/IDS/connector/dummy
    Signature Algorithm: sha1WithRSAEncryption
         4a:46:9d:79:22:9c:5e:df:1c:d6:3f:8f:59:a1:6e:02:d7:e3:
         57:ef:fe:b6:57:21:8e:0e:b9:47:1e:59:ec:34:33:c2:d0:66:
         9c:f3:df:39:2d:69:ca:27:66:00:ca:fc:fb:17:c8:27:2f:f4:
         ff:ff:0c:73:41:27:29:e7:d0:9a:74:a4:98:b2:1a:5e:8e:fb:
         c9:6d:80:6d:fa:c1:0f:bc:f0:34:5f:75:ac:43:22:fe:39:f1:
         7c:7a:66:0e:79:1f:f1:d6:b1:3f:6e:96:71:f3:7f:cb:1d:47:
         c0:cb:7a:c8:cc:61:9d:29:68:70:cb:61:e0:a5:d4:d8:72:c6:
         cb:f2:ef:81:1d:99:12:1a:a3:df:10:7f:57:c2:34:b5:7d:9a:
         63:32:b1:39:9c:06:17:b8:76:b1:0f:81:f2:07:f4:2b:7c:48:
         10:56:cd:aa:9a:08:fe:81:d1:84:f3:c4:cb:d3:9e:25:bd:96:
         ea:d7:cb:49:7c:3e:1a:2e:03:b5:cb:00:16:e5:ea:bb:2b:95:
         29:36:36:16:3d:01:d5:51:9a:8a:a5:be:bd:e0:ba:aa:b3:ee:
         8c:3c:28:0a:0f:7a:ea:d2:2b:8e:f6:f9:0d:b4:e5:53:33:15:
         94:28:2c:cc:8a:27:87:5b:fd:86:2b:c6:60:44:3b:18:5e:f2:
         d6:c3:a5:52
-----BEGIN CERTIFICATE-----
MIIE8DCCA9igAwIBAgIBEDANBgkqhkiG9w0BAQUFADBNMQswCQYDVQQGEwJERTER
MA8GA1UECgwIbmljb3MgQUcxDzANBgNVBAsMBklEUy1EQzEaMBgGA1UEAwwRSURT
LURDLUNvbm5lY3RvcnMwHhcNMTgxMDI2MTEzMTQwWhcNMjAxMDI1MTEzMTQwWjBs
MQswCQYDVQQGEwJERTERMA8GA1UECgwIbmljb3MgQUcxFDASBgNVBAsMC0lEUy1E
Qy1EQVBTMTQwMgYDVQQDDCtodHRwOi8vd3d3Lm5pY29zLXJkLmNvbS9JRFMvY29u
bmVjdG9yL2R1bW15MIIBIjANBgkqhkiG9w0BAQEFAAOCAQ8AMIIBCgKCAQEArScN
3sdWpcfiaEnF/efg7Vts5Zr9XysqvictAAHnklqt/h0wCs/UBw+1b+8z+yat98SU
NtTVdP/JPwia64RPC2d1doTb0ZGj/gLzUaZCzhFIzG6qi9ld3xrwZPWTMdvZUUJL
an3mgGcJHIMbdCf304NvoLR3iEvve+ToYc6CfYsdMTz4gVKRCxHtkonjcL4CIEUs
husXUGmok2tGuoUqOK5Cuyo7ewPRnBzkk3OhO0QfMP4SeWsFF2po7X2XlNCWB4Bv
04Lhd7RK2PiMz/qjq0L7vEFh7Q60b4T2+DzffyifA+5jJtO6UPRzmdyY8xkXbKfi
GdugKsmA1LzW7WQolwIDAQABo4IBujCCAbYwDgYDVR0PAQH/BAQDAgWgMAkGA1Ud
EwQCMAAwHQYDVR0lBBYwFAYIKwYBBQUHAwEGCCsGAQUFBwMCMB0GA1UdDgQWBBRT
VjwAbYYpj5IirzmejXajIHd5eDAfBgNVHSMEGDAWgBQ7m45ypFQFWhBI58AzC4cC
vFd8pDCBogYIKwYBBQUHAQEEgZUwgZIwWAYIKwYBBQUHMAKGTGh0dHA6Ly93d3cu
aW50ZXJuYXRpb25hbGRhdGFzcGFjZXMub3JnL2RjL0Nvbm5lY3RvcnMvaWRzLWRj
LWNvbm5lY3Rvci1jYS5jZXIwNgYIKwYBBQUHMAGGKmh0dHA6Ly9vY3NwLWRjLmlu
dGVybmF0aW9uYWxkYXRhc3BhY2VzLm9yZzBdBgNVHR8EVjBUMFKgUKBOhkxodHRw
Oi8vd3d3LmludGVybmF0aW9uYWxkYXRhc3BhY2VzLm9yZy9kYy9Db25uZWN0b3Jz
L2lkcy1kYy1jb25uZWN0b3ItY2EuY3JsMDYGA1UdEQQvMC2GK2h0dHA6Ly93d3cu
bmljb3MtcmQuY29tL0lEUy9jb25uZWN0b3IvZHVtbXkwDQYJKoZIhvcNAQEFBQAD
ggEBAEpGnXkinF7fHNY/j1mhbgLX41fv/rZXIY4OuUceWew0M8LQZpzz3zktacon
ZgDK/PsXyCcv9P//DHNBJynn0Jp0pJiyGl6O+8ltgG36wQ+88DRfdaxDIv458Xx6
Zg55H/HWsT9ulnHzf8sdR8DLesjMYZ0paHDLYeCl1Nhyxsvy74EdmRIao98Qf1fC
NLV9mmMysTmcBhe4drEPgfIH9Ct8SBBWzaqaCP6B0YTzxMvTniW9lurXy0l8Phou
A7XLABbl6rsrlSk2NhY9AdVRmoqlvr3guqqz7ow8KAoPeurSK472+Q205VMzFZQo
LMyKJ4db/YYrxmBEOxhe8tbDpVI=
-----END CERTIFICATE-----
